target datalayout = "e-m:e-p270:32:32-p271:32:32-p272:64:64-i64:64-i128:128-f80:128-n8:16:32:64-S128"
target triple = "x86_64-pc-linux-gnu"

%"struct.XDR::xdr_ops" = type { ptr, ptr, ptr, ptr, ptr, ptr, ptr, ptr, ptr, ptr }
%struct.XDR = type { i32, ptr, ptr, ptr, ptr, i32 }

@_ZL8xdr_zero = internal global [4 x i8] zeroinitializer, align 1

; Function Attrs: mustprogress uwtable
define noundef i32 @_Z10xdr_opaqueP3XDRPcj(ptr noundef %0, ptr noundef %1, i32 noundef %2) #0 {
  %4 = alloca i32, align 4
  %5 = alloca ptr, align 8
  %6 = alloca ptr, align 8
  %7 = alloca i32, align 4
  %8 = alloca i32, align 4
  %9 = alloca [4 x i8], align 1
  store ptr %0, ptr %5, align 8
  store ptr %1, ptr %6, align 8
  store i32 %2, ptr %7, align 4
  %10 = load i32, ptr %7, align 4
  %11 = icmp eq i32 %10, 0
  br i1 %11, label %12, label %13

12:                                               ; preds = %3
  store i32 1, ptr %4, align 4
  br label %78

13:                                               ; preds = %3
  %14 = load i32, ptr %7, align 4
  %15 = urem i32 %14, 4
  store i32 %15, ptr %8, align 4
  %16 = load i32, ptr %8, align 4
  %17 = icmp ugt i32 %16, 0
  br i1 %17, label %18, label %21

18:                                               ; preds = %13
  %19 = load i32, ptr %8, align 4
  %20 = sub i32 4, %19
  store i32 %20, ptr %8, align 4
  br label %21

21:                                               ; preds = %18, %13
  %22 = load ptr, ptr %5, align 8
  %23 = getelementptr inbounds %struct.XDR, ptr %22, i32 0, i32 0
  %24 = load i32, ptr %23, align 8
  switch i32 %24, label %77 [
    i32 1, label %25
    i32 0, label %51
    i32 2, label %76
  ]

25:                                               ; preds = %21
  %26 = load ptr, ptr %5, align 8
  %27 = getelementptr inbounds %struct.XDR, ptr %26, i32 0, i32 1
  %28 = load ptr, ptr %27, align 8
  %29 = getelementptr inbounds %"struct.XDR::xdr_ops", ptr %28, i32 0, i32 0
  %30 = load ptr, ptr %29, align 8
  %31 = load ptr, ptr %5, align 8
  %32 = load ptr, ptr %6, align 8
  %33 = load i32, ptr %7, align 4
  %34 = call noundef i32 %30(ptr noundef %31, ptr noundef %32, i32 noundef %33)
  %35 = icmp ne i32 %34, 0
  br i1 %35, label %37, label %36

36:                                               ; preds = %25
  store i32 0, ptr %4, align 4
  br label %78

37:                                               ; preds = %25
  %38 = load i32, ptr %8, align 4
  %39 = icmp eq i32 %38, 0
  br i1 %39, label %40, label %41

40:                                               ; preds = %37
  store i32 1, ptr %4, align 4
  br label %78

41:                                               ; preds = %37
  %42 = load ptr, ptr %5, align 8
  %43 = getelementptr inbounds %struct.XDR, ptr %42, i32 0, i32 1
  %44 = load ptr, ptr %43, align 8
  %45 = getelementptr inbounds %"struct.XDR::xdr_ops", ptr %44, i32 0, i32 0
  %46 = load ptr, ptr %45, align 8
  %47 = load ptr, ptr %5, align 8
  %48 = getelementptr inbounds [4 x i8], ptr %9, i64 0, i64 0
  %49 = load i32, ptr %8, align 4
  %50 = call noundef i32 %46(ptr noundef %47, ptr noundef %48, i32 noundef %49)
  store i32 %50, ptr %4, align 4
  br label %78

51:                                               ; preds = %21
  %52 = load ptr, ptr %5, align 8
  %53 = getelementptr inbounds %struct.XDR, ptr %52, i32 0, i32 1
  %54 = load ptr, ptr %53, align 8
  %55 = getelementptr inbounds %"struct.XDR::xdr_ops", ptr %54, i32 0, i32 1
  %56 = load ptr, ptr %55, align 8
  %57 = load ptr, ptr %5, align 8
  %58 = load ptr, ptr %6, align 8
  %59 = load i32, ptr %7, align 4
  %60 = call noundef i32 %56(ptr noundef %57, ptr noundef %58, i32 noundef %59)
  %61 = icmp ne i32 %60, 0
  br i1 %61, label %63, label %62

62:                                               ; preds = %51
  store i32 0, ptr %4, align 4
  br label %78

63:                                               ; preds = %51
  %64 = load i32, ptr %8, align 4
  %65 = icmp eq i32 %64, 0
  br i1 %65, label %66, label %67

66:                                               ; preds = %63
  store i32 1, ptr %4, align 4
  br label %78

67:                                               ; preds = %63
  %68 = load ptr, ptr %5, align 8
  %69 = getelementptr inbounds %struct.XDR, ptr %68, i32 0, i32 1
  %70 = load ptr, ptr %69, align 8
  %71 = getelementptr inbounds %"struct.XDR::xdr_ops", ptr %70, i32 0, i32 1
  %72 = load ptr, ptr %71, align 8
  %73 = load ptr, ptr %5, align 8
  %74 = load i32, ptr %8, align 4
  %75 = call noundef i32 %72(ptr noundef %73, ptr noundef @_ZL8xdr_zero, i32 noundef %74)
  store i32 %75, ptr %4, align 4
  br label %78

76:                                               ; preds = %21
  store i32 1, ptr %4, align 4
  br label %78

77:                                               ; preds = %21
  store i32 0, ptr %4, align 4
  br label %78

78:                                               ; preds = %77, %76, %67, %66, %62, %41, %40, %36, %12
  %79 = load i32, ptr %4, align 4
  ret i32 %79
}