; Function Attrs: mustprogress uwtable
define noundef i32 @_Z10xdr_opaqueP3XDRPcj(ptr noundef %0, ptr noundef %1, i32 noundef %2) local_unnamed_addr #0 {
  %4 = alloca [4 x i8], align 1
  %5 = icmp eq i32 %2, 0
  br i1 %5, label %31, label %6

6:                                                ; preds = %3
  %7 = and i32 %2, 3
  %.not = icmp eq i32 %7, 0
  %8 = sub nuw nsw i32 4, %7
  %9 = load i32, ptr %0, align 8
  switch i32 %9, label %30 [
    i32 1, label %10
    i32 0, label %19
    i32 2, label %31
  ]

10:                                               ; preds = %6
  %11 = getelementptr inbounds i8, ptr %0, i64 8
  %12 = load ptr, ptr %11, align 8
  %13 = load ptr, ptr %12, align 8
  %14 = tail call noundef i32 %13(ptr noundef nonnull %0, ptr noundef %1, i32 noundef %2)
  %.not25 = icmp eq i32 %14, 0
  %brmerge = or i1 %.not, %.not25
  %not..not25 = xor i1 %.not25, true
  %.mux = zext i1 %not..not25 to i32
  br i1 %brmerge, label %31, label %15

15:                                               ; preds = %10
  %16 = load ptr, ptr %11, align 8
  %17 = load ptr, ptr %16, align 8
  %18 = call noundef i32 %17(ptr noundef nonnull %0, ptr noundef nonnull %4, i32 noundef %8)
  br label %31

19:                                               ; preds = %6
  %20 = getelementptr inbounds i8, ptr %0, i64 8
  %21 = load ptr, ptr %20, align 8
  %22 = getelementptr inbounds i8, ptr %21, i64 8
  %23 = load ptr, ptr %22, align 8
  %24 = tail call noundef i32 %23(ptr noundef nonnull %0, ptr noundef %1, i32 noundef %2)
  %.not24 = icmp eq i32 %24, 0
  %brmerge26 = or i1 %.not, %.not24
  %not..not24 = xor i1 %.not24, true
  %.mux27 = zext i1 %not..not24 to i32
  br i1 %brmerge26, label %31, label %25

25:                                               ; preds = %19
  %26 = load ptr, ptr %20, align 8
  %27 = getelementptr inbounds i8, ptr %26, i64 8
  %28 = load ptr, ptr %27, align 8
  %29 = tail call noundef i32 %28(ptr noundef nonnull %0, ptr noundef nonnull @_ZL8xdr_zero, i32 noundef %8)
  br label %31

30:                                               ; preds = %6
  br label %31

31:                                               ; preds = %19, %10, %6, %3, %30, %25, %15
  %.021 = phi i32 [ 0, %30 ], [ %29, %25 ], [ %18, %15 ], [ 1, %3 ], [ %.mux, %10 ], [ %.mux27, %19 ], [ 1, %6 ]
  ret i32 %.021
}